target datalayout = "e-m:e-p270:32:32-p271:32:32-p272:64:64-i64:64-i128:128-f80:128-n8:16:32:64-S128"
target triple = "x86_64-pc-linux-gnu"

%struct.__mpz_struct = type { i32, i32, ptr }
%"class.cvc5::internal::Rational" = type { %class.__gmp_expr.3 }
%class.__gmp_expr.3 = type { [1 x %struct.__mpq_struct] }
%struct.__mpq_struct = type { %struct.__mpz_struct, %struct.__mpz_struct }
%"struct.std::pair.4" = type <{ %"class.cvc5::internal::Rational", i8, [7 x i8] }>

; Function Attrs: mustprogress nounwind uwtable
define linkonce_odr hidden void @_ZN4cvc58internal8RationalD2Ev(ptr noundef nonnull align 8 dereferenceable(32) %0) unnamed_addr #7 comdat align 2 {
  %2 = alloca ptr, align 8
  store ptr %0, ptr %2, align 8, !tbaa !25
  %3 = load ptr, ptr %2, align 8
  %4 = getelementptr inbounds nuw %"class.cvc5::internal::Rational", ptr %3, i32 0, i32 0
  call void @_ZN10__gmp_exprIA1_12__mpq_structS1_ED2Ev(ptr noundef nonnull align 8 dereferenceable(32) %4) #3
  ret void
}

; Function Attrs: mustprogress nounwind uwtable
define linkonce_odr hidden void @_ZN10__gmp_exprIA1_12__mpq_structS1_ED2Ev(ptr noundef nonnull align 8 dereferenceable(32) %0) unnamed_addr #7 comdat align 2 personality ptr @__gxx_personality_v0 {
  %2 = alloca ptr, align 8
  store ptr %0, ptr %2, align 8, !tbaa !117
  %3 = load ptr, ptr %2, align 8
  %4 = getelementptr inbounds nuw %class.__gmp_expr.3, ptr %3, i32 0, i32 0
  %5 = getelementptr inbounds [1 x %struct.__mpq_struct], ptr %4, i64 0, i64 0
  invoke void @__gmpq_clear(ptr noundef %5)
          to label %6 unwind label %7

6:                                                ; preds = %1
  ret void

7:                                                ; preds = %1
  %8 = landingpad { ptr, i32 }
          catch ptr null
  %9 = extractvalue { ptr, i32 } %8, 0
  call void @__clang_call_terminate(ptr %9) #20
  unreachable
}

; Function Attrs: mustprogress uwtable
define linkonce_odr hidden void @_ZN10__gmp_exprIA1_12__mpq_structS1_E12canonicalizeEv(ptr noundef nonnull align 8 dereferenceable(32) %0) #4 comdat align 2 {
  %2 = alloca ptr, align 8
  store ptr %0, ptr %2, align 8, !tbaa !117
  %3 = load ptr, ptr %2, align 8
  %4 = getelementptr inbounds nuw %class.__gmp_expr.3, ptr %3, i32 0, i32 0
  %5 = getelementptr inbounds [1 x %struct.__mpq_struct], ptr %4, i64 0, i64 0
  call void @__gmpq_canonicalize(ptr noundef %5)
  ret void
}

; Function Attrs: mustprogress uwtable
define linkonce_odr hidden void @_ZN10__gmp_exprIA1_12__mpq_structS1_EC2ERKS2_(ptr noundef nonnull align 8 dereferenceable(32) %0, ptr noundef nonnull align 8 dereferenceable(32) %1) unnamed_addr #4 comdat align 2 {
  %3 = alloca ptr, align 8
  %4 = alloca ptr, align 8
  store ptr %0, ptr %3, align 8, !tbaa !117
  store ptr %1, ptr %4, align 8, !tbaa !117
  %5 = load ptr, ptr %3, align 8
  %6 = getelementptr inbounds nuw %class.__gmp_expr.3, ptr %5, i32 0, i32 0
  %7 = getelementptr inbounds [1 x %struct.__mpq_struct], ptr %6, i64 0, i64 0
  %8 = getelementptr inbounds nuw %struct.__mpq_struct, ptr %7, i32 0, i32 0
  %9 = load ptr, ptr %4, align 8, !tbaa !117
  %10 = getelementptr inbounds nuw %class.__gmp_expr.3, ptr %9, i32 0, i32 0
  %11 = getelementptr inbounds [1 x %struct.__mpq_struct], ptr %10, i64 0, i64 0
  %12 = getelementptr inbounds nuw %struct.__mpq_struct, ptr %11, i32 0, i32 0
  call void @__gmpz_init_set(ptr noundef %8, ptr noundef %12)
  %13 = getelementptr inbounds nuw %class.__gmp_expr.3, ptr %5, i32 0, i32 0
  %14 = getelementptr inbounds [1 x %struct.__mpq_struct], ptr %13, i64 0, i64 0
  %15 = getelementptr inbounds nuw %struct.__mpq_struct, ptr %14, i32 0, i32 1
  %16 = load ptr, ptr %4, align 8, !tbaa !117
  %17 = getelementptr inbounds nuw %class.__gmp_expr.3, ptr %16, i32 0, i32 0
  %18 = getelementptr inbounds [1 x %struct.__mpq_struct], ptr %17, i64 0, i64 0
  %19 = getelementptr inbounds nuw %struct.__mpq_struct, ptr %18, i32 0, i32 1
  call void @__gmpz_init_set(ptr noundef %15, ptr noundef %19)
  ret void
}

; Function Attrs: inlinehint mustprogress nounwind uwtable
define linkonce_odr hidden void @_ZNSt4pairIN4cvc58internal8RationalEbED2Ev(ptr noundef nonnull align 8 dereferenceable(33) %0) unnamed_addr #10 comdat align 2 {
  %2 = alloca ptr, align 8
  store ptr %0, ptr %2, align 8, !tbaa !63
  %3 = load ptr, ptr %2, align 8
  %4 = getelementptr inbounds nuw %"struct.std::pair.4", ptr %3, i32 0, i32 0
  call void @_ZN4cvc58internal8RationalD2Ev(ptr noundef nonnull align 8 dereferenceable(32) %4) #3
  ret void
}

; Function Attrs: mustprogress uwtable
define linkonce_odr hidden void @_ZN4cvc58internal8RationalC2ERKS1_(ptr noundef nonnull align 8 dereferenceable(32) %0, ptr noundef nonnull align 8 dereferenceable(32) %1) unnamed_addr #4 comdat align 2 personality ptr @__gxx_personality_v0 {
  %3 = alloca ptr, align 8
  %4 = alloca ptr, align 8
  %5 = alloca ptr, align 8
  %6 = alloca i32, align 4
  store ptr %0, ptr %3, align 8, !tbaa !25
  store ptr %1, ptr %4, align 8, !tbaa !25
  %7 = load ptr, ptr %3, align 8
  %8 = getelementptr inbounds nuw %"class.cvc5::internal::Rational", ptr %7, i32 0, i32 0
  %9 = load ptr, ptr %4, align 8, !tbaa !25
  %10 = getelementptr inbounds nuw %"class.cvc5::internal::Rational", ptr %9, i32 0, i32 0
  call void @_ZN10__gmp_exprIA1_12__mpq_structS1_EC2ERKS2_(ptr noundef nonnull align 8 dereferenceable(32) %8, ptr noundef nonnull align 8 dereferenceable(32) %10)
  %11 = getelementptr inbounds nuw %"class.cvc5::internal::Rational", ptr %7, i32 0, i32 0
  invoke void @_ZN10__gmp_exprIA1_12__mpq_structS1_E12canonicalizeEv(ptr noundef nonnull align 8 dereferenceable(32) %11)
          to label %12 unwind label %13

12:                                               ; preds = %2
  ret void

13:                                               ; preds = %2
  %14 = landingpad { ptr, i32 }
          cleanup
  %15 = extractvalue { ptr, i32 } %14, 0
  store ptr %15, ptr %5, align 8
  %16 = extractvalue { ptr, i32 } %14, 1
  store i32 %16, ptr %6, align 4
  call void @_ZN10__gmp_exprIA1_12__mpq_structS1_ED2Ev(ptr noundef nonnull align 8 dereferenceable(32) %8) #3
  br label %17

17:                                               ; preds = %13
  %18 = load ptr, ptr %5, align 8
  %19 = load i32, ptr %6, align 4
  %20 = insertvalue { ptr, i32 } poison, ptr %18, 0
  %21 = insertvalue { ptr, i32 } %20, i32 %19, 1
  resume { ptr, i32 } %21
}

; Function Attrs: mustprogress uwtable
define hidden void @_ZNK4cvc58internal13FloatingPoint22convertToRationalTotalENS0_8RationalE(ptr dead_on_unwind noalias writable sret(%"class.cvc5::internal::Rational") align 8 %0, ptr noundef nonnull align 8 dereferenceable(8) %1, ptr noundef %2) #4 align 2 personality ptr @__gxx_personality_v0 {
  %4 = alloca ptr, align 8
  %5 = alloca ptr, align 8
  %6 = alloca ptr, align 8
  %7 = alloca %"struct.std::pair.4", align 8
  %8 = alloca ptr, align 8
  %9 = alloca i32, align 4
  store ptr %0, ptr %4, align 8
  store ptr %1, ptr %5, align 8, !tbaa !8
  store ptr %2, ptr %6, align 8, !tbaa !25
  %10 = load ptr, ptr %5, align 8
  call void @llvm.lifetime.start.p0(i64 40, ptr %7) #3
  call void @_ZNK4cvc58internal13FloatingPoint17convertToRationalEv(ptr dead_on_unwind writable sret(%"struct.std::pair.4") align 8 %7, ptr noundef nonnull align 8 dereferenceable(8) %10)
  %11 = getelementptr inbounds nuw %"struct.std::pair.4", ptr %7, i32 0, i32 1
  %12 = load i8, ptr %11, align 8, !tbaa !59, !range !21, !noundef !22
  %13 = trunc i8 %12 to i1
  br i1 %13, label %14, label %16

14:                                               ; preds = %3
  %15 = getelementptr inbounds nuw %"struct.std::pair.4", ptr %7, i32 0, i32 0
  br label %17

16:                                               ; preds = %3
  br label %17

17:                                               ; preds = %16, %14
  %18 = phi ptr [ %15, %14 ], [ %2, %16 ]
  invoke void @_ZN4cvc58internal8RationalC2ERKS1_(ptr noundef nonnull align 8 dereferenceable(32) %0, ptr noundef nonnull align 8 dereferenceable(32) %18)
          to label %19 unwind label %20

19:                                               ; preds = %17
  call void @_ZNSt4pairIN4cvc58internal8RationalEbED2Ev(ptr noundef nonnull align 8 dereferenceable(33) %7) #3
  call void @llvm.lifetime.end.p0(i64 40, ptr %7) #3
  ret void

20:                                               ; preds = %17
  %21 = landingpad { ptr, i32 }
          cleanup
  %22 = extractvalue { ptr, i32 } %21, 0
  store ptr %22, ptr %8, align 8
  %23 = extractvalue { ptr, i32 } %21, 1
  store i32 %23, ptr %9, align 4
  call void @_ZNSt4pairIN4cvc58internal8RationalEbED2Ev(ptr noundef nonnull align 8 dereferenceable(33) %7) #3
  call void @llvm.lifetime.end.p0(i64 40, ptr %7) #3
  br label %24

24:                                               ; preds = %20
  %25 = load ptr, ptr %8, align 8
  %26 = load i32, ptr %9, align 4
  %27 = insertvalue { ptr, i32 } poison, ptr %25, 0
  %28 = insertvalue { ptr, i32 } %27, i32 %26, 1
  resume { ptr, i32 } %28
}