; Function Attrs: mustprogress uwtable
define hidden void @_ZNK4cvc58internal13FloatingPoint22convertToRationalTotalENS0_8RationalE(ptr dead_on_unwind noalias writable sret(%"class.cvc5::internal::Rational") align 8 %0, ptr noundef nonnull readonly align 8 captures(none) dereferenceable(8) %1, ptr noundef %2) local_unnamed_addr #3 align 2 personality ptr @__gxx_personality_v0 {
  %4 = alloca %"struct.std::pair.4", align 8
  call void @llvm.lifetime.start.p0(i64 40, ptr nonnull %4) #20
  call void @_ZNK4cvc58internal13FloatingPoint17convertToRationalEv(ptr dead_on_unwind nonnull writable sret(%"struct.std::pair.4") align 8 %4, ptr noundef nonnull align 8 dereferenceable(8) %1)
  %5 = getelementptr inbounds nuw i8, ptr %4, i64 32
  %6 = load i8, ptr %5, align 8, !tbaa !57, !range !19, !noundef !20
  %7 = trunc nuw i8 %6 to i1
  %8 = select i1 %7, ptr %4, ptr %2
  invoke void @__gmpz_init_set(ptr noundef nonnull align 8 dereferenceable(32) %0, ptr noundef nonnull align 8 dereferenceable(32) %8)
          to label %.noexc unwind label %18

.noexc:                                           ; preds = %3
  %9 = getelementptr inbounds nuw i8, ptr %0, i64 16
  %.sroa.sel.v.sroa.sel.v.sroa.sel.v = select i1 %7, ptr %4, ptr %2
  %.sroa.sel.v.sroa.sel.v.sroa.sel = getelementptr inbounds nuw i8, ptr %.sroa.sel.v.sroa.sel.v.sroa.sel.v, i64 16
  invoke void @__gmpz_init_set(ptr noundef nonnull %9, ptr noundef nonnull %.sroa.sel.v.sroa.sel.v.sroa.sel)
          to label %.noexc2 unwind label %18

.noexc2:                                          ; preds = %.noexc
  invoke void @__gmpq_canonicalize(ptr noundef nonnull align 8 dereferenceable(32) %0)
          to label %_ZN4cvc58internal8RationalC2ERKS1_.exit unwind label %10

10:                                               ; preds = %.noexc2
  %11 = landingpad { ptr, i32 }
          cleanup
  invoke void @__gmpq_clear(ptr noundef nonnull align 8 dereferenceable(32) %0)
          to label %.body unwind label %12

12:                                               ; preds = %10
  %13 = landingpad { ptr, i32 }
          catch ptr null
  %14 = extractvalue { ptr, i32 } %13, 0
  call void @__clang_call_terminate(ptr %14) #19
  unreachable

_ZN4cvc58internal8RationalC2ERKS1_.exit:          ; preds = %.noexc2
  invoke void @__gmpq_clear(ptr noundef nonnull align 8 dereferenceable(33) %4)
          to label %_ZNSt4pairIN4cvc58internal8RationalEbED2Ev.exit unwind label %15

15:                                               ; preds = %_ZN4cvc58internal8RationalC2ERKS1_.exit
  %16 = landingpad { ptr, i32 }
          catch ptr null
  %17 = extractvalue { ptr, i32 } %16, 0
  call void @__clang_call_terminate(ptr %17) #19
  unreachable

_ZNSt4pairIN4cvc58internal8RationalEbED2Ev.exit:  ; preds = %_ZN4cvc58internal8RationalC2ERKS1_.exit
  call void @llvm.lifetime.end.p0(i64 40, ptr nonnull %4) #20
  ret void

18:                                               ; preds = %.noexc, %3
  %19 = landingpad { ptr, i32 }
          cleanup
  br label %.body

.body:                                            ; preds = %10, %18
  %eh.lpad-body = phi { ptr, i32 } [ %19, %18 ], [ %11, %10 ]
  invoke void @__gmpq_clear(ptr noundef nonnull align 8 dereferenceable(33) %4)
          to label %_ZNSt4pairIN4cvc58internal8RationalEbED2Ev.exit3 unwind label %20

20:                                               ; preds = %.body
  %21 = landingpad { ptr, i32 }
          catch ptr null
  %22 = extractvalue { ptr, i32 } %21, 0
  call void @__clang_call_terminate(ptr %22) #19
  unreachable

_ZNSt4pairIN4cvc58internal8RationalEbED2Ev.exit3: ; preds = %.body
  call void @llvm.lifetime.end.p0(i64 40, ptr nonnull %4) #20
  resume { ptr, i32 } %eh.lpad-body
}